(dp0
V278379
p1
ccopy_reg
_reconstructor
p2
(c__main__
User
p3
c__builtin__
object
p4
Ntp5
Rp6
(dp7
Vname
p8
V\u5c0f\u660e
p9
sVidCard
p10
V1
p11
sVphone
p12
g11
sVcard
p13
g2
(c__main__
Card
p14
g4
Ntp15
Rp16
(dp17
VcardId
p18
g1
sVcardPasswd
p19
g11
sVcardMoney
p20
I1
sVcardLock
p21
I00
sbsbs.